target datalayout = "e-m:e-p270:32:32-p271:32:32-p272:64:64-i64:64-i128:128-f80:128-n8:16:32:64-S128"
target triple = "x86_64-pc-linux-gnu"

%struct.prov_aes_gcm_siv_ctx_st = type { ptr, ptr, ptr, ptr, ptr, i64, i64, [32 x i8], [32 x i8], [16 x i8], [16 x i8], [16 x i8], [12 x i8], [16 x %struct.u128], i8 }
%struct.u128 = type { i64, i64 }
%struct.prov_cipher_hw_aes_gcm_siv_st = type { ptr, ptr, ptr, ptr }

@.str = private unnamed_addr constant [66 x i8] c"../openssl/providers/implementations/ciphers/cipher_aes_gcm_siv.c\00", align 1
@__func__.ossl_aes_gcm_siv_init = private unnamed_addr constant [22 x i8] c"ossl_aes_gcm_siv_init\00", align 1

; Function Attrs: nounwind uwtable
define internal i32 @ossl_aes_gcm_siv_init(ptr noundef %0, ptr noundef %1, i64 noundef %2, ptr noundef %3, i64 noundef %4, ptr noundef %5, i32 noundef %6) #0 {
  %8 = alloca i32, align 4
  %9 = alloca ptr, align 8
  %10 = alloca ptr, align 8
  %11 = alloca i64, align 8
  %12 = alloca ptr, align 8
  %13 = alloca i64, align 8
  %14 = alloca ptr, align 8
  %15 = alloca i32, align 4
  %16 = alloca ptr, align 8
  %17 = alloca i32, align 4
  store ptr %0, ptr %9, align 8, !tbaa !3
  store ptr %1, ptr %10, align 8, !tbaa !24
  store i64 %2, ptr %11, align 8, !tbaa !25
  store ptr %3, ptr %12, align 8, !tbaa !24
  store i64 %4, ptr %13, align 8, !tbaa !25
  store ptr %5, ptr %14, align 8, !tbaa !26
  store i32 %6, ptr %15, align 4, !tbaa !30
  call void @llvm.lifetime.start.p0(i64 8, ptr %16) #5
  %18 = load ptr, ptr %9, align 8, !tbaa !3
  store ptr %18, ptr %16, align 8, !tbaa !7
  %19 = call i32 @ossl_prov_is_running()
  %20 = icmp ne i32 %19, 0
  br i1 %20, label %22, label %21

21:                                               ; preds = %7
  store i32 0, ptr %8, align 4
  store i32 1, ptr %17, align 4
  br label %74

22:                                               ; preds = %7
  %23 = load i32, ptr %15, align 4, !tbaa !30
  %24 = load ptr, ptr %16, align 8, !tbaa !7
  %25 = getelementptr inbounds nuw %struct.prov_aes_gcm_siv_ctx_st, ptr %24, i32 0, i32 14
  %26 = trunc i32 %23 to i8
  %27 = load i8, ptr %25, align 8
  %28 = and i8 %26, 1
  %29 = and i8 %27, -2
  %30 = or i8 %29, %28
  store i8 %30, ptr %25, align 8
  %31 = load ptr, ptr %10, align 8, !tbaa !24
  %32 = icmp ne ptr %31, null
  br i1 %32, label %33, label %48

33:                                               ; preds = %22
  %34 = load i64, ptr %11, align 8, !tbaa !25
  %35 = load ptr, ptr %16, align 8, !tbaa !7
  %36 = getelementptr inbounds nuw %struct.prov_aes_gcm_siv_ctx_st, ptr %35, i32 0, i32 6
  %37 = load i64, ptr %36, align 8, !tbaa !35
  %38 = icmp ne i64 %34, %37
  br i1 %38, label %39, label %40

39:                                               ; preds = %33
  call void @ERR_new()
  call void @ERR_set_debug(ptr noundef @.str, i32 noundef 104, ptr noundef @__func__.ossl_aes_gcm_siv_init)
  call void (i32, i32, ptr, ...) @ERR_set_error(i32 noundef 57, i32 noundef 105, ptr noundef null)
  store i32 0, ptr %8, align 4
  store i32 1, ptr %17, align 4
  br label %74

40:                                               ; preds = %33
  %41 = load ptr, ptr %16, align 8, !tbaa !7
  %42 = getelementptr inbounds nuw %struct.prov_aes_gcm_siv_ctx_st, ptr %41, i32 0, i32 7
  %43 = getelementptr inbounds [32 x i8], ptr %42, i64 0, i64 0
  %44 = load ptr, ptr %10, align 8, !tbaa !24
  %45 = load ptr, ptr %16, align 8, !tbaa !7
  %46 = getelementptr inbounds nuw %struct.prov_aes_gcm_siv_ctx_st, ptr %45, i32 0, i32 6
  %47 = load i64, ptr %46, align 8, !tbaa !35
  call void @llvm.memcpy.p0.p0.i64(ptr align 8 %43, ptr align 1 %44, i64 %47, i1 false)
  br label %48

48:                                               ; preds = %40, %22
  %49 = load ptr, ptr %12, align 8, !tbaa !24
  %50 = icmp ne ptr %49, null
  br i1 %50, label %51, label %60

51:                                               ; preds = %48
  %52 = load i64, ptr %13, align 8, !tbaa !25
  %53 = icmp ne i64 %52, 12
  br i1 %53, label %54, label %55

54:                                               ; preds = %51
  call void @ERR_new()
  call void @ERR_set_debug(ptr noundef @.str, i32 noundef 111, ptr noundef @__func__.ossl_aes_gcm_siv_init)
  call void (i32, i32, ptr, ...) @ERR_set_error(i32 noundef 57, i32 noundef 109, ptr noundef null)
  store i32 0, ptr %8, align 4
  store i32 1, ptr %17, align 4
  br label %74

55:                                               ; preds = %51
  %56 = load ptr, ptr %16, align 8, !tbaa !7
  %57 = getelementptr inbounds nuw %struct.prov_aes_gcm_siv_ctx_st, ptr %56, i32 0, i32 12
  %58 = getelementptr inbounds [12 x i8], ptr %57, i64 0, i64 0
  %59 = load ptr, ptr %12, align 8, !tbaa !24
  call void @llvm.memcpy.p0.p0.i64(ptr align 8 %58, ptr align 1 %59, i64 12, i1 false)
  br label %60

60:                                               ; preds = %55, %48
  %61 = load ptr, ptr %16, align 8, !tbaa !7
  %62 = getelementptr inbounds nuw %struct.prov_aes_gcm_siv_ctx_st, ptr %61, i32 0, i32 1
  %63 = load ptr, ptr %62, align 8, !tbaa !19
  %64 = getelementptr inbounds nuw %struct.prov_cipher_hw_aes_gcm_siv_st, ptr %63, i32 0, i32 0
  %65 = load ptr, ptr %64, align 8, !tbaa !39
  %66 = load ptr, ptr %16, align 8, !tbaa !7
  %67 = call i32 %65(ptr noundef %66)
  %68 = icmp ne i32 %67, 0
  br i1 %68, label %70, label %69

69:                                               ; preds = %60
  store i32 0, ptr %8, align 4
  store i32 1, ptr %17, align 4
  br label %74

70:                                               ; preds = %60
  %71 = load ptr, ptr %16, align 8, !tbaa !7
  %72 = load ptr, ptr %14, align 8, !tbaa !26
  %73 = call i32 @ossl_aes_gcm_siv_set_ctx_params(ptr noundef %71, ptr noundef %72)
  store i32 %73, ptr %8, align 4
  store i32 1, ptr %17, align 4
  br label %74

74:                                               ; preds = %70, %69, %54, %39, %21
  call void @llvm.lifetime.end.p0(i64 8, ptr %16) #5
  %75 = load i32, ptr %8, align 4
  ret i32 %75
}