; Function Attrs: nounwind uwtable
define internal fastcc range(i32 0, 2) i32 @ossl_aes_gcm_siv_init(ptr noundef %0, ptr noundef readonly captures(address_is_null) %1, i64 noundef %2, ptr noundef readonly captures(address_is_null) %3, i64 noundef %4, ptr noundef %5, i32 noundef range(i32 0, 2) %6) unnamed_addr #0 {
  %8 = tail call i32 @ossl_prov_is_running() #5
  %.not = icmp eq i32 %8, 0
  br i1 %.not, label %33, label %9

9:                                                ; preds = %7
  %10 = getelementptr inbounds nuw i8, ptr %0, i64 440
  %11 = trunc nuw nsw i32 %6 to i8
  %12 = load i8, ptr %10, align 8
  %13 = and i8 %12, -2
  %14 = or disjoint i8 %13, %11
  store i8 %14, ptr %10, align 8
  %.not20 = icmp eq ptr %1, null
  br i1 %.not20, label %21, label %15

15:                                               ; preds = %9
  %16 = getelementptr inbounds nuw i8, ptr %0, i64 48
  %17 = load i64, ptr %16, align 8, !tbaa !3
  %.not21 = icmp eq i64 %2, %17
  br i1 %.not21, label %19, label %18

18:                                               ; preds = %15
  tail call void @ERR_new() #5
  tail call void @ERR_set_debug(ptr noundef nonnull @.str, i32 noundef 104, ptr noundef nonnull @__func__.ossl_aes_gcm_siv_init) #5
  tail call void (i32, i32, ptr, ...) @ERR_set_error(i32 noundef 57, i32 noundef 105, ptr noundef null) #5
  br label %33

19:                                               ; preds = %15
  %20 = getelementptr inbounds nuw i8, ptr %0, i64 56
  tail call void @llvm.memcpy.p0.p0.i64(ptr nonnull align 8 %20, ptr nonnull align 1 %1, i64 %2, i1 false)
  br label %21

21:                                               ; preds = %19, %9
  %.not22 = icmp eq ptr %3, null
  br i1 %.not22, label %26, label %22

22:                                               ; preds = %21
  %.not23 = icmp eq i64 %4, 12
  br i1 %.not23, label %24, label %23

23:                                               ; preds = %22
  tail call void @ERR_new() #5
  tail call void @ERR_set_debug(ptr noundef nonnull @.str, i32 noundef 111, ptr noundef nonnull @__func__.ossl_aes_gcm_siv_init) #5
  tail call void (i32, i32, ptr, ...) @ERR_set_error(i32 noundef 57, i32 noundef 109, ptr noundef null) #5
  br label %33

24:                                               ; preds = %22
  %25 = getelementptr inbounds nuw i8, ptr %0, i64 168
  tail call void @llvm.memcpy.p0.p0.i64(ptr noundef nonnull align 8 dereferenceable(12) %25, ptr noundef nonnull align 1 dereferenceable(12) %3, i64 12, i1 false)
  br label %26

26:                                               ; preds = %24, %21
  %27 = getelementptr inbounds nuw i8, ptr %0, i64 8
  %28 = load ptr, ptr %27, align 8, !tbaa !15
  %29 = load ptr, ptr %28, align 8, !tbaa !32
  %30 = tail call i32 %29(ptr noundef nonnull %0) #5
  %.not24 = icmp eq i32 %30, 0
  br i1 %.not24, label %33, label %31

31:                                               ; preds = %26
  %32 = tail call i32 @ossl_aes_gcm_siv_set_ctx_params(ptr noundef nonnull %0, ptr noundef %5)
  br label %33

33:                                               ; preds = %26, %7, %31, %23, %18
  %.0 = phi i32 [ 0, %18 ], [ 0, %23 ], [ %32, %31 ], [ 0, %7 ], [ 0, %26 ]
  ret i32 %.0
}